; Function Attrs: nofree norecurse nosync nounwind memory(readwrite, inaccessiblemem: none) uwtable
define dso_local ptr @PyErr_GetHandledException() local_unnamed_addr #8 {
  %1 = tail call align 8 ptr @llvm.threadlocal.address.p0(ptr align 8 @_Py_tss_tstate)
  %2 = load ptr, ptr %1, align 8, !tbaa !25
  %3 = getelementptr inbounds nuw i8, ptr %2, i64 120
  %4 = load ptr, ptr %3, align 8, !tbaa !38
  br label %5

5:                                                ; preds = %8, %0
  %.0.i.i = phi ptr [ %4, %0 ], [ %10, %8 ]
  %6 = load ptr, ptr %.0.i.i, align 8, !tbaa !39
  %7 = icmp eq ptr %6, null
  br i1 %7, label %8, label %_PyErr_GetTopmostException.exit.i

8:                                                ; preds = %5
  %9 = getelementptr inbounds nuw i8, ptr %.0.i.i, i64 8
  %10 = load ptr, ptr %9, align 8, !tbaa !40
  %.not.i.i = icmp eq ptr %10, null
  br i1 %.not.i.i, label %_PyErr_GetHandledException.exit, label %5, !llvm.loop !41

_PyErr_GetTopmostException.exit.i:                ; preds = %5
  %11 = icmp eq ptr %6, @_Py_NoneStruct
  br i1 %11, label %_PyErr_GetHandledException.exit, label %12

12:                                               ; preds = %_PyErr_GetTopmostException.exit.i
  %13 = load i32, ptr %6, align 8, !tbaa !20
  %14 = icmp slt i32 %13, 0
  br i1 %14, label %_PyErr_GetHandledException.exit, label %15

15:                                               ; preds = %12
  %16 = add nuw i32 %13, 1
  store i32 %16, ptr %6, align 8, !tbaa !20
  br label %_PyErr_GetHandledException.exit

_PyErr_GetHandledException.exit:                  ; preds = %8, %_PyErr_GetTopmostException.exit.i, %12, %15
  %.0.i = phi ptr [ null, %_PyErr_GetTopmostException.exit.i ], [ %6, %12 ], [ %6, %15 ], [ null, %8 ]
  ret ptr %.0.i
}